target datalayout = "e-m:e-p270:32:32-p271:32:32-p272:64:64-i64:64-i128:128-f80:128-n8:16:32:64-S128"
target triple = "x86_64-pc-linux-gnu"

%struct.H5C_t = type { i8, ptr, ptr, i32, ptr, i64, i64, ptr, i8, ptr, i8, i8, i32, i64, [6 x i32], [6 x i64], i64, [6 x i64], i64, [6 x i64], [65536 x ptr], i32, i64, ptr, ptr, i64, ptr, ptr, i8, i8, i32, i64, [6 x i32], [6 x i64], ptr, i32, ptr, i8, i32, i32, i64, ptr, ptr, i32, i64, ptr, ptr, i32, i64, ptr, ptr, i8, i8, i64, i8, i8, i8, i8, i8, i8, %struct.H5C_auto_size_ctl_t, i32, [10 x i8], [11 x i32], i32, i32, i32, [10 x %struct.H5C_cache_entry_t], i64, i64, %struct.H5C_cache_image_ctl_t, i8, i8, i8, i8, i64, i64, i64, i64, i64, i64, i64, i32, ptr, ptr, i8, i8, [32 x i8] }
%struct.H5C_auto_size_ctl_t = type { i32, ptr, i8, i64, double, i64, i64, i64, i32, double, double, i8, i64, i32, double, double, i32, double, double, i8, i64, i32, i8, double }
%struct.H5C_cache_entry_t = type { ptr, i64, i64, ptr, i8, ptr, i8, i8, i8, i8, i32, i8, i8, i8, i8, i8, i32, ptr, i32, i32, i32, i32, i32, i8, i8, ptr, ptr, ptr, ptr, ptr, ptr, i8, i32, i8, i64, ptr, i64, i64, i32, i8, i32, i32, i8, ptr, ptr, ptr }
%struct.H5C_cache_image_ctl_t = type { i32, i8, i8, i32, i32 }

@.str.1 = private unnamed_addr constant [97 x i8] c"generated/home/dtcxzyw/WorkSpace/Projects/compilers/llvm-opt-benchmark/bench/hdf5/hdf5/src/H5C.c\00", align 1
@H5E_CACHE_g = external global i64, align 8
@H5E_SYSTEM_g = external global i64, align 8
@__func__.H5C_set_evictions_enabled = private unnamed_addr constant [26 x i8] c"H5C_set_evictions_enabled\00", align 1
@.str.32 = private unnamed_addr constant [23 x i8] c"Bad cache_ptr on entry\00", align 1
@.str.33 = private unnamed_addr constant [49 x i8] c"Can't disable evictions when auto resize enabled\00", align 1

; Function Attrs: nounwind uwtable
define i32 @H5C_set_evictions_enabled(ptr noundef %0, i1 noundef zeroext %1) #0 {
  %3 = alloca ptr, align 8
  %4 = alloca i8, align 1
  %5 = alloca i32, align 4
  %6 = alloca i8, align 1
  store ptr %0, ptr %3, align 8
  %7 = zext i1 %1 to i8
  store i8 %7, ptr %4, align 1
  store i32 0, ptr %5, align 4
  store i8 0, ptr %6, align 1
  %8 = load ptr, ptr %3, align 8
  %9 = icmp eq ptr %8, null
  br i1 %9, label %10, label %25

10:                                               ; preds = %2
  br label %11

11:                                               ; preds = %10
  br label %12

12:                                               ; preds = %11
  br label %13

13:                                               ; preds = %12
  %14 = load i64, ptr @H5E_CACHE_g, align 8
  %15 = load i64, ptr @H5E_SYSTEM_g, align 8
  %16 = call i32 (ptr, ptr, i32, i64, i64, ptr, ...) @H5E_printf_stack(ptr noundef @.str.1, ptr noundef @__func__.H5C_set_evictions_enabled, i32 noundef 1008, i64 noundef %14, i64 noundef %15, ptr noundef @.str.32)
  br label %17

17:                                               ; preds = %13
  store i8 1, ptr %6, align 1
  %18 = load i8, ptr %6, align 1
  %19 = trunc i8 %18 to i1
  %20 = zext i1 %19 to i8
  store i8 %20, ptr %6, align 1
  br label %21

21:                                               ; preds = %17
  br label %22

22:                                               ; preds = %21
  store i32 -1, ptr %5, align 4
  br label %63

23:                                               ; No predecessors!
  br label %24

24:                                               ; preds = %23
  br label %25

25:                                               ; preds = %24, %2
  %26 = load i8, ptr %4, align 1
  %27 = trunc i8 %26 to i1
  %28 = zext i1 %27 to i32
  %29 = icmp ne i32 %28, 1
  br i1 %29, label %30, label %57

30:                                               ; preds = %25
  %31 = load ptr, ptr %3, align 8
  %32 = getelementptr inbounds %struct.H5C_t, ptr %31, i32 0, i32 60
  %33 = getelementptr inbounds %struct.H5C_auto_size_ctl_t, ptr %32, i32 0, i32 8
  %34 = load i32, ptr %33, align 8
  %35 = icmp ne i32 %34, 0
  br i1 %35, label %42, label %36

36:                                               ; preds = %30
  %37 = load ptr, ptr %3, align 8
  %38 = getelementptr inbounds %struct.H5C_t, ptr %37, i32 0, i32 60
  %39 = getelementptr inbounds %struct.H5C_auto_size_ctl_t, ptr %38, i32 0, i32 16
  %40 = load i32, ptr %39, align 8
  %41 = icmp ne i32 %40, 0
  br i1 %41, label %42, label %57

42:                                               ; preds = %36, %30
  br label %43

43:                                               ; preds = %42
  br label %44

44:                                               ; preds = %43
  br label %45

45:                                               ; preds = %44
  %46 = load i64, ptr @H5E_CACHE_g, align 8
  %47 = load i64, ptr @H5E_SYSTEM_g, align 8
  %48 = call i32 (ptr, ptr, i32, i64, i64, ptr, ...) @H5E_printf_stack(ptr noundef @.str.1, ptr noundef @__func__.H5C_set_evictions_enabled, i32 noundef 1017, i64 noundef %46, i64 noundef %47, ptr noundef @.str.33)
  br label %49

49:                                               ; preds = %45
  store i8 1, ptr %6, align 1
  %50 = load i8, ptr %6, align 1
  %51 = trunc i8 %50 to i1
  %52 = zext i1 %51 to i8
  store i8 %52, ptr %6, align 1
  br label %53

53:                                               ; preds = %49
  br label %54

54:                                               ; preds = %53
  store i32 -1, ptr %5, align 4
  br label %63

55:                                               ; No predecessors!
  br label %56

56:                                               ; preds = %55
  br label %57

57:                                               ; preds = %56, %36, %25
  %58 = load i8, ptr %4, align 1
  %59 = trunc i8 %58 to i1
  %60 = load ptr, ptr %3, align 8
  %61 = getelementptr inbounds %struct.H5C_t, ptr %60, i32 0, i32 10
  %62 = zext i1 %59 to i8
  store i8 %62, ptr %61, align 8
  br label %63

63:                                               ; preds = %57, %54, %22
  %64 = load i32, ptr %5, align 4
  ret i32 %64
}