; Function Attrs: nounwind uwtable
define range(i32 -1, 1) i32 @H5C_set_evictions_enabled(ptr noundef %0, i1 noundef zeroext %1) local_unnamed_addr #0 {
  %3 = zext i1 %1 to i8
  %4 = icmp eq ptr %0, null
  br i1 %4, label %5, label %9

5:                                                ; preds = %2
  %6 = load i64, ptr @H5E_CACHE_g, align 8
  %7 = load i64, ptr @H5E_SYSTEM_g, align 8
  %8 = tail call i32 (ptr, ptr, i32, i64, i64, ptr, ...) @H5E_printf_stack(ptr noundef nonnull @.str.1, ptr noundef nonnull @__func__.H5C_set_evictions_enabled, i32 noundef 1008, i64 noundef %6, i64 noundef %7, ptr noundef nonnull @.str.32) #8
  br label %22

9:                                                ; preds = %2
  br i1 %1, label %20, label %10

10:                                               ; preds = %9
  %11 = getelementptr inbounds i8, ptr %0, i64 524928
  %12 = load i32, ptr %11, align 8
  %.not = icmp eq i32 %12, 0
  br i1 %.not, label %13, label %16

13:                                               ; preds = %10
  %14 = getelementptr inbounds i8, ptr %0, i64 524992
  %15 = load i32, ptr %14, align 8
  %.not9 = icmp eq i32 %15, 0
  br i1 %.not9, label %20, label %16

16:                                               ; preds = %10, %13
  %17 = load i64, ptr @H5E_CACHE_g, align 8
  %18 = load i64, ptr @H5E_SYSTEM_g, align 8
  %19 = tail call i32 (ptr, ptr, i32, i64, i64, ptr, ...) @H5E_printf_stack(ptr noundef nonnull @.str.1, ptr noundef nonnull @__func__.H5C_set_evictions_enabled, i32 noundef 1017, i64 noundef %17, i64 noundef %18, ptr noundef nonnull @.str.33) #8
  br label %22

20:                                               ; preds = %13, %9
  %21 = getelementptr inbounds i8, ptr %0, i64 80
  store i8 %3, ptr %21, align 8
  br label %22

22:                                               ; preds = %20, %16, %5
  %.0 = phi i32 [ -1, %5 ], [ -1, %16 ], [ 0, %20 ]
  ret i32 %.0
}